Certificate:
    Data:
        Version: 3 (0x2)
        Serial Number: 6 (0x6)
    Signature Algorithm: sha256WithRSAEncryption
        Issuer: C=CN, ST=Beijing, L=Beijing, O=HBC, OU=Tech, CN=HBC CA SSL - Global Center/emailAddress=sysadmin@huangbaoche.com
        Validity
            Not Before: Dec  8 09:52:31 2016 GMT
            Not After : Dec  6 09:52:31 2026 GMT
        Subject: C=CN, ST=Beijing, O=HBC, OU=Tech, CN=*.huangbaoche.com/emailAddress=hongweiguang@huangbaoche.com
        Subject Public Key Info:
            Public Key Algorithm: rsaEncryption
                Public-Key: (4096 bit)
                Modulus:
                    00:ee:7d:6a:f5:fd:ad:0d:71:78:1e:f5:10:97:47:
                    3d:3f:cc:ff:7c:6e:55:71:d1:30:98:c1:b2:b8:58:
                    d3:3a:67:ec:79:5f:5e:30:57:6c:e2:5b:0f:8f:58:
                    c1:ff:8c:a1:aa:1d:7a:6d:10:d8:7c:f4:d1:de:1e:
                    0b:2b:41:b8:cb:03:15:f6:18:82:3d:30:24:92:ec:
                    c5:04:be:0d:55:04:40:59:b7:99:6e:9c:fb:87:c7:
                    6b:d6:83:d9:4b:43:9e:e8:50:b0:ea:70:cb:8c:10:
                    30:83:e8:4d:67:32:25:3f:93:88:aa:dc:03:58:5e:
                    65:cf:bb:f3:f8:9d:c5:18:3d:b8:1e:88:6c:d2:57:
                    2b:e4:51:f8:27:e5:86:fa:06:9a:2e:ba:5f:39:1a:
                    1c:fe:cb:f0:ff:50:9a:c6:01:60:ff:35:87:0b:bb:
                    91:66:f6:e7:c7:60:18:05:c0:0e:db:93:44:96:7a:
                    37:2d:96:25:38:07:ad:92:8d:3e:5c:9e:cc:df:f2:
                    2f:f3:58:32:75:31:af:d3:68:d7:0a:dc:41:dd:27:
                    ee:a2:1f:93:6f:b3:f1:ba:cb:da:7f:28:48:25:d0:
                    d2:8a:bf:66:4b:e8:80:7d:c7:f8:eb:2f:99:e3:88:
                    bc:f8:ba:f3:d0:92:08:51:da:95:4f:2b:14:8f:d0:
                    ed:ee:90:38:ec:6c:68:b5:46:4d:ea:db:ed:48:4b:
                    44:51:0b:9a:a0:95:f3:ec:08:34:69:f7:15:f5:a0:
                    75:63:c8:af:e4:30:2f:cc:20:94:c1:ce:ba:f1:ce:
                    43:41:3f:94:db:2c:64:ae:e7:f1:87:51:ed:59:46:
                    8a:3e:d3:db:d9:9c:e6:fb:61:f4:2c:14:94:55:ed:
                    01:fe:ff:63:c1:28:c7:d0:f9:bd:88:eb:25:9d:c0:
                    90:70:ae:6a:63:09:a8:d5:f7:e1:22:ff:f8:46:ad:
                    62:06:38:2f:6c:4f:e7:91:b5:d9:c6:c0:69:e2:2c:
                    56:37:10:90:0f:ea:99:09:f8:8f:c0:1c:b2:db:55:
                    cd:ec:84:35:4f:94:6a:e9:20:0f:70:17:1d:11:98:
                    89:a5:81:89:16:65:14:95:08:26:67:cf:9f:71:3f:
                    15:e6:40:c1:53:3d:49:da:c1:70:8c:89:5c:18:9a:
                    7f:ff:65:62:09:df:62:fd:3f:79:dd:ee:a6:97:41:
                    84:25:57:42:45:bc:ef:fa:69:1d:2c:09:ee:89:46:
                    2c:07:f9:bb:fb:3d:46:b3:93:f0:91:d0:56:7d:1e:
                    ec:df:34:c5:a4:68:2e:b9:b6:d7:ca:22:fb:4c:fc:
                    e4:c9:7a:09:c4:f7:ed:9a:7c:da:a9:63:bd:3c:2a:
                    69:b1:a9
                Exponent: 65537 (0x10001)
        X509v3 extensions:
            X509v3 Basic Constraints: 
                CA:FALSE
            Netscape Comment: 
                OpenSSL Generated Certificate
            X509v3 Subject Key Identifier: 
                54:63:E5:05:3A:24:22:6E:A6:88:A8:3F:73:1A:86:45:C0:17:50:B9
            X509v3 Authority Key Identifier: 
                keyid:71:00:67:02:AC:86:26:7D:DC:E6:22:B1:2A:DC:B1:DD:36:D3:53:71

    Signature Algorithm: sha256WithRSAEncryption
         93:61:df:4c:ac:ae:19:62:3f:a9:e5:7c:c7:f2:f9:3a:4f:f8:
         af:a3:ea:44:0c:9c:98:b1:b0:bd:09:8c:04:b8:a1:3a:b1:a0:
         7f:4e:68:b9:09:18:73:14:c0:65:f4:c3:31:f2:7a:19:3c:05:
         35:f3:d6:e7:46:a1:a7:86:90:7f:83:88:37:42:c3:a4:32:b7:
         01:2a:84:f4:15:46:8e:eb:83:a3:c3:a5:49:1a:81:b9:5c:b4:
         8d:ee:08:35:fc:37:df:0d:f1:ed:b5:64:40:d7:a1:32:e5:c1:
         a8:43:fa:7b:bf:08:2c:c9:85:92:73:b8:7d:45:93:3e:58:07:
         36:05:54:df:ad:1d:17:d9:ce:30:5b:aa:c8:3d:db:f0:04:ab:
         fc:e2:34:4c:35:34:8a:59:6b:f0:d3:1c:12:84:7e:2b:c3:31:
         72:7d:a2:f6:0f:ea:1a:71:27:3c:72:40:e6:b9:3a:59:b2:53:
         18:ee:6b:c1:0d:86:41:ae:61:10:d7:c7:f2:02:a0:93:db:8a:
         f0:44:6a:cc:99:a8:49:e5:45:25:64:8e:04:26:38:ff:d2:71:
         55:b6:32:86:cc:14:2f:86:84:68:ad:05:f9:33:0e:1e:bb:43:
         46:bb:ec:f2:59:f3:b8:67:77:c2:fe:ae:40:ad:61:83:d3:f5:
         20:e8:93:0b:b2:5a:10:ff:3b:a3:53:d9:4e:50:7b:0d:69:98:
         63:e7:4a:20:f5:6e:f0:94:77:c3:3d:a2:b4:47:88:a2:f8:83:
         80:7a:bc:c1:ce:6d:29:98:67:1c:0e:45:82:35:85:56:9e:50:
         0c:1f:a6:1b:9c:92:ce:a1:f4:87:e2:9b:b5:53:1d:83:05:bf:
         3f:e6:c0:03:ca:33:f8:5f:74:71:73:59:1b:f6:ee:56:0c:c9:
         67:2a:9a:2a:d6:41:eb:64:cd:30:8b:4e:e2:9e:b8:06:65:f1:
         dc:2a:be:a6:48:20:08:4e:70:ef:58:cc:cf:95:40:be:b9:71:
         93:12:ee:e3:eb:d1:98:2c:b2:67:00:0b:1a:3c:4a:d4:41:3c:
         37:07:42:d6:50:0d:53:fe:65:3b:c4:45:d0:b1:81:6f:c1:ee:
         4d:91:3a:6b:37:af:c1:b0:69:62:f8:7e:97:c4:1f:d5:10:4d:
         41:5f:bb:e2:a0:95:0c:1e:ea:5d:f5:2f:85:84:6b:1d:7e:41:
         80:68:75:1c:15:d7:e9:3c:79:e6:47:9c:51:e6:c3:71:18:90:
         0b:d6:30:85:ac:99:07:66:65:d6:00:22:40:57:a8:81:f9:72:
         fb:cb:92:fa:1f:55:6c:d8:b8:a4:71:cf:1d:8d:76:e8:1c:04:
         e2:8e:d2:0b:07:2c:b2:11:d9:9f:08:c0:63:6f:9d:c2:aa:4d:
         b8:d2:fd:62:eb:2c:c4:ac:46:ca:77:fa:de:42:c7:b5:b2:28:
         15:95:ba:9c:3b:a7:8f:43:86:91:dc:25:4a:b6:73:34:3e:00:
         9a:e9:58:24:47:c0:ee:6c:6a:17:3b:86:d8:ab:35:0f:7c:d5:
         43:48:9d:26:c2:eb:ca:1d:b4:e8:e8:ca:be:d9:8d:d8:8b:89:
         9e:e3:18:f8:01:96:c7:01:d6:56:7c:2c:65:e3:2e:0b:e3:73:
         ad:3d:9a:1d:47:a6:3c:69:62:c1:df:74:fd:e1:3d:a8:84:67:
         cd:27:f9:ab:53:41:4b:2a:87:ea:f1:eb:e7:74:a5:34:9b:ef:
         e5:a9:67:3c:63:ef:19:52:b6:0a:b0:e1:8b:18:ab:b1:51:69:
         52:61:6d:8f:24:9a:4b:3c:35:93:fe:19:95:da:c0:ba:8e:c9:
         d4:75:2e:d8:7e:65:af:63:d4:4f:be:c6:da:3d:86:29:72:9f:
         03:6b:54:7c:fb:4b:c9:eb:ba:ea:44:4c:db:b2:8b:a3:c6:0e:
         b7:04:99:9d:6e:87:74:9b:ab:cf:a1:4b:fd:2a:3b:09:80:a6:
         3c:4b:b3:47:7e:88:bf:c2:8d:4e:2a:7f:68:df:94:9a:93:24:
         df:04:76:3f:a8:98:78:d8:28:b8:e7:c4:f3:8d:5e:46:ef:b0:
         66:68:ce:0c:39:67:b4:96:92:fa:b1:b8:b4:92:72:a2:e2:12:
         1d:97:52:d1:0d:bb:18:9a:83:d4:52:13:04:a1:24:ba:af:43:
         62:96:54:cd:e1:38:27:d6:00:ee:eb:24:57:93:f7:66:79:b5:
         63:d1:54:8d:b0:81:ba:0f:66:ff:08:ea:dc:b4:be:91:d9:23:
         bc:06:7b:fa:16:1a:cb:2b:7b:00:d4:64:06:4b:03:f8:0a:5b:
         41:9f:95:51:ee:82:36:8d:d3:02:4e:31:92:bf:ef:2f:89:24:
         e2:f1:66:c8:0b:84:c0:10:76:a2:09:e1:46:ca:c1:a9:a9:d2:
         41:96:c7:4b:43:4a:fa:c7:59:9c:a6:c4:8b:b2:3d:b6:9f:86:
         64:b0:fa:39:24:b0:ae:63:d7:5c:ec:6b:ba:17:40:59:9e:62:
         5b:30:38:3c:a1:f2:f2:fc:4b:82:40:5b:83:af:1b:3f:77:96:
         6c:30:01:e4:73:ce:0a:b9:d4:4b:61:58:b6:7d:51:d9:95:4d:
         7b:05:c5:33:71:fb:38:a9:7e:6d:b3:cc:b4:36:fe:3f:8c:3f:
         96:f1:10:21:8f:16:13:3e:c6:be:88:f8:22:56:2a:02:7a:4f:
         e7:0e:de:9a:9d:b8:93:6d:67:76:70:32:4d:c1:05:50
-----BEGIN CERTIFICATE-----
MIIIGTCCBAGgAwIBAgIBBjANBgkqhkiG9w0BAQsFADCBnDELMAkGA1UEBhMCQ04x
EDAOBgNVBAgMB0JlaWppbmcxEDAOBgNVBAcMB0JlaWppbmcxDDAKBgNVBAoMA0hC
QzENMAsGA1UECwwEVGVjaDEjMCEGA1UEAwwaSEJDIENBIFNTTCAtIEdsb2JhbCBD
ZW50ZXIxJzAlBgkqhkiG9w0BCQEWGHN5c2FkbWluQGh1YW5nYmFvY2hlLmNvbTAe
Fw0xNjEyMDgwOTUyMzFaFw0yNjEyMDYwOTUyMzFaMIGFMQswCQYDVQQGEwJDTjEQ
MA4GA1UECAwHQmVpamluZzEMMAoGA1UECgwDSEJDMQ0wCwYDVQQLDARUZWNoMRow
GAYDVQQDDBEqLmh1YW5nYmFvY2hlLmNvbTErMCkGCSqGSIb3DQEJARYcaG9uZ3dl
aWd1YW5nQGh1YW5nYmFvY2hlLmNvbTCCAiIwDQYJKoZIhvcNAQEBBQADggIPADCC
AgoCggIBAO59avX9rQ1xeB71EJdHPT/M/3xuVXHRMJjBsrhY0zpn7HlfXjBXbOJb
D49Ywf+Moaodem0Q2Hz00d4eCytBuMsDFfYYgj0wJJLsxQS+DVUEQFm3mW6c+4fH
a9aD2UtDnuhQsOpwy4wQMIPoTWcyJT+TiKrcA1heZc+78/idxRg9uB6IbNJXK+RR
+CflhvoGmi66XzkaHP7L8P9QmsYBYP81hwu7kWb258dgGAXADtuTRJZ6Ny2WJTgH
rZKNPlyezN/yL/NYMnUxr9No1wrcQd0n7qIfk2+z8brL2n8oSCXQ0oq/ZkvogH3H
+OsvmeOIvPi689CSCFHalU8rFI/Q7e6QOOxsaLVGTerb7UhLRFELmqCV8+wINGn3
FfWgdWPIr+QwL8wglMHOuvHOQ0E/lNssZK7n8YdR7VlGij7T29mc5vth9CwUlFXt
Af7/Y8Eox9D5vYjrJZ3AkHCuamMJqNX34SL/+EatYgY4L2xP55G12cbAaeIsVjcQ
kA/qmQn4j8AcsttVzeyENU+UaukgD3AXHRGYiaWBiRZlFJUIJmfPn3E/FeZAwVM9
SdrBcIyJXBiaf/9lYgnfYv0/ed3uppdBhCVXQkW87/ppHSwJ7olGLAf5u/s9RrOT
8JHQVn0e7N80xaRoLrm218oi+0z85Ml6CcT37Zp82qljvTwqabGpAgMBAAGjezB5
MAkGA1UdEwQCMAAwLAYJYIZIAYb4QgENBB8WHU9wZW5TU0wgR2VuZXJhdGVkIENl
cnRpZmljYXRlMB0GA1UdDgQWBBRUY+UFOiQibqaIqD9zGoZFwBdQuTAfBgNVHSME
GDAWgBRxAGcCrIYmfdzmIrEq3LHdNtNTcTANBgkqhkiG9w0BAQsFAAOCBAEAk2Hf
TKyuGWI/qeV8x/L5Ok/4r6PqRAycmLGwvQmMBLihOrGgf05ouQkYcxTAZfTDMfJ6
GTwFNfPW50ahp4aQf4OIN0LDpDK3ASqE9BVGjuuDo8OlSRqBuVy0je4INfw33w3x
7bVkQNehMuXBqEP6e78ILMmFknO4fUWTPlgHNgVU360dF9nOMFuqyD3b8ASr/OI0
TDU0illr8NMcEoR+K8Mxcn2i9g/qGnEnPHJA5rk6WbJTGO5rwQ2GQa5hENfH8gKg
k9uK8ERqzJmoSeVFJWSOBCY4/9JxVbYyhswUL4aEaK0F+TMOHrtDRrvs8lnzuGd3
wv6uQK1hg9P1IOiTC7JaEP87o1PZTlB7DWmYY+dKIPVu8JR3wz2itEeIoviDgHq8
wc5tKZhnHA5FgjWFVp5QDB+mG5ySzqH0h+KbtVMdgwW/P+bAA8oz+F90cXNZG/bu
VgzJZyqaKtZB62TNMItO4p64BmXx3Cq+pkggCE5w71jMz5VAvrlxkxLu4+vRmCyy
ZwALGjxK1EE8NwdC1lANU/5lO8RF0LGBb8HuTZE6azevwbBpYvh+l8Qf1RBNQV+7
4qCVDB7qXfUvhYRrHX5BgGh1HBXX6Tx55kecUebDcRiQC9YwhayZB2Zl1gAiQFeo
gfly+8uS+h9VbNi4pHHPHY126BwE4o7SCwcsshHZnwjAY2+dwqpNuNL9YussxKxG
ynf63kLHtbIoFZW6nDunj0OGkdwlSrZzND4AmulYJEfA7mxqFzuG2Ks1D3zVQ0id
JsLryh206OjKvtmN2IuJnuMY+AGWxwHWVnwsZeMuC+NzrT2aHUemPGliwd90/eE9
qIRnzSf5q1NBSyqH6vHr53SlNJvv5alnPGPvGVK2CrDhixirsVFpUmFtjySaSzw1
k/4ZldrAuo7J1HUu2H5lr2PUT77G2j2GKXKfA2tUfPtLyeu66kRM27KLo8YOtwSZ
nW6HdJurz6FL/So7CYCmPEuzR36Iv8KNTip/aN+UmpMk3wR2P6iYeNgouOfE841e
Ru+wZmjODDlntJaS+rG4tJJyouISHZdS0Q27GJqD1FITBKEkuq9DYpZUzeE4J9YA
7uskV5P3Znm1Y9FUjbCBug9m/wjq3LS+kdkjvAZ7+hYayyt7ANRkBksD+ApbQZ+V
Ue6CNo3TAk4xkr/vL4kk4vFmyAuEwBB2ognhRsrBqanSQZbHS0NK+sdZnKbEi7I9
tp+GZLD6OSSwrmPXXOxruhdAWZ5iWzA4PKHy8vxLgkBbg68bP3eWbDAB5HPOCrnU
S2FYtn1R2ZVNewXFM3H7OKl+bbPMtDb+P4w/lvEQIY8WEz7Gvoj4IlYqAnpP5w7e
mp24k21ndnAyTcEFUA==
-----END CERTIFICATE-----
